target datalayout = "e-m:e-p270:32:32-p271:32:32-p272:64:64-i64:64-i128:128-f80:128-n8:16:32:64-S128"
target triple = "x86_64-pc-linux-gnu"

%struct._MRIStepInnerStepper = type { ptr, ptr, ptr, ptr, i32, i32, i32, double, double, ptr, ptr, i64, i64, i64, i64 }

@.str = private unnamed_addr constant [123 x i8] c"generated/home/dtcxzyw/WorkSpace/Projects/compilers/llvm-opt-benchmark/bench/sundials/sundials/src/arkode/arkode_mristep.c\00", align 1
@__func__.MRIStepInnerStepper_SetContent = private unnamed_addr constant [31 x i8] c"MRIStepInnerStepper_SetContent\00", align 1
@.str.96 = private unnamed_addr constant [29 x i8] c"Inner stepper memory is NULL\00", align 1

; Function Attrs: nounwind uwtable
define i32 @MRIStepInnerStepper_SetContent(ptr noundef %0, ptr noundef %1) #0 {
  %3 = alloca i32, align 4
  %4 = alloca ptr, align 8
  %5 = alloca ptr, align 8
  store ptr %0, ptr %4, align 8, !tbaa !11
  store ptr %1, ptr %5, align 8, !tbaa !3
  %6 = load ptr, ptr %4, align 8, !tbaa !11
  %7 = icmp eq ptr %6, null
  br i1 %7, label %8, label %9

8:                                                ; preds = %2
  call void (ptr, i32, i32, ptr, ptr, ptr, ...) @arkProcessError(ptr noundef null, i32 noundef -22, i32 noundef 4334, ptr noundef @__func__.MRIStepInnerStepper_SetContent, ptr noundef @.str, ptr noundef @.str.96)
  store i32 -22, ptr %3, align 4
  br label %13

9:                                                ; preds = %2
  %10 = load ptr, ptr %5, align 8, !tbaa !3
  %11 = load ptr, ptr %4, align 8, !tbaa !11
  %12 = getelementptr inbounds nuw %struct._MRIStepInnerStepper, ptr %11, i32 0, i32 0
  store ptr %10, ptr %12, align 8, !tbaa !263
  store i32 0, ptr %3, align 4
  br label %13

13:                                               ; preds = %9, %8
  %14 = load i32, ptr %3, align 4
  ret i32 %14
}